; Function Attrs: nounwind uwtable
define range(i32 0, 2) i32 @Abc_NtkFraigStore(ptr noundef %0) local_unnamed_addr #0 {
  %2 = tail call ptr @Abc_NtkStrash(ptr noundef %0, i32 noundef 0, i32 noundef 0, i32 noundef 0) #11
  %3 = icmp eq ptr %2, null
  br i1 %3, label %4, label %5

4:                                                ; preds = %1
  %puts12 = tail call i32 @puts(ptr nonnull dereferenceable(1) @str.7)
  br label %57

5:                                                ; preds = %1
  %6 = tail call ptr (...) @Abc_FrameReadStore() #11
  %7 = getelementptr i8, ptr %6, i64 4
  %.val = load i32, ptr %7, align 4
  %8 = icmp sgt i32 %.val, 0
  br i1 %8, label %9, label %26

9:                                                ; preds = %5
  %10 = getelementptr i8, ptr %6, i64 8
  %.val14 = load ptr, ptr %10, align 8
  %11 = load ptr, ptr %.val14, align 8
  %12 = tail call i32 @Abc_NodeCompareCiCo(ptr noundef nonnull %2, ptr noundef %11) #11
  %.not = icmp eq i32 %12, 0
  br i1 %.not, label %13, label %thread-pre-split

13:                                               ; preds = %9
  %.val13 = load ptr, ptr %10, align 8
  %14 = load ptr, ptr %.val13, align 8
  %15 = tail call i32 @Abc_NtkCompareSignals(ptr noundef nonnull %2, ptr noundef %14, i32 noundef 1, i32 noundef 1) #11
  %.not10 = icmp eq i32 %15, 0
  br i1 %.not10, label %16, label %thread-pre-split

16:                                               ; preds = %13
  %puts = tail call i32 @puts(ptr nonnull dereferenceable(1) @str.5)
  %puts11 = tail call i32 @puts(ptr nonnull dereferenceable(1) @str.6)
  %17 = tail call ptr (...) @Abc_FrameReadStore() #11
  %18 = getelementptr i8, ptr %17, i64 4
  %.val7.i = load i32, ptr %18, align 4
  %19 = icmp sgt i32 %.val7.i, 0
  br i1 %19, label %.lr.ph.i, label %Abc_NtkFraigStoreClean.exit

.lr.ph.i:                                         ; preds = %16
  %20 = getelementptr i8, ptr %17, i64 8
  br label %21

21:                                               ; preds = %21, %.lr.ph.i
  %indvars.iv.i = phi i64 [ 0, %.lr.ph.i ], [ %indvars.iv.next.i, %21 ]
  %.val6.i = load ptr, ptr %20, align 8
  %22 = getelementptr inbounds nuw ptr, ptr %.val6.i, i64 %indvars.iv.i
  %23 = load ptr, ptr %22, align 8
  tail call void @Abc_NtkDelete(ptr noundef %23) #11
  %indvars.iv.next.i = add nuw nsw i64 %indvars.iv.i, 1
  %.val.i = load i32, ptr %18, align 4
  %24 = sext i32 %.val.i to i64
  %25 = icmp slt i64 %indvars.iv.next.i, %24
  br i1 %25, label %21, label %Abc_NtkFraigStoreClean.exit, !llvm.loop !30

Abc_NtkFraigStoreClean.exit:                      ; preds = %21, %16
  store i32 0, ptr %18, align 4
  br label %thread-pre-split

thread-pre-split:                                 ; preds = %13, %Abc_NtkFraigStoreClean.exit, %9
  %.pr = load i32, ptr %7, align 4
  br label %26

26:                                               ; preds = %thread-pre-split, %5
  %27 = phi i32 [ %.pr, %thread-pre-split ], [ %.val, %5 ]
  %28 = load i32, ptr %6, align 8
  %29 = icmp eq i32 %27, %28
  br i1 %29, label %30, label %.Vec_PtrGrow.exit11_crit_edge.i

.Vec_PtrGrow.exit11_crit_edge.i:                  ; preds = %26
  %.phi.trans.insert.i = getelementptr inbounds nuw i8, ptr %6, i64 8
  %.pre.i = load ptr, ptr %.phi.trans.insert.i, align 8
  br label %Vec_PtrPush.exit

30:                                               ; preds = %26
  %31 = icmp slt i32 %27, 16
  br i1 %31, label %32, label %40

32:                                               ; preds = %30
  %33 = getelementptr inbounds nuw i8, ptr %6, i64 8
  %34 = load ptr, ptr %33, align 8
  %.not9.i.i = icmp eq ptr %34, null
  br i1 %.not9.i.i, label %37, label %35

35:                                               ; preds = %32
  %36 = tail call dereferenceable_or_null(128) ptr @realloc(ptr noundef nonnull %34, i64 noundef 128) #14
  br label %Vec_PtrGrow.exit.i

37:                                               ; preds = %32
  %38 = tail call noalias dereferenceable_or_null(128) ptr @malloc(i64 noundef 128) #12
  br label %Vec_PtrGrow.exit.i

Vec_PtrGrow.exit.i:                               ; preds = %37, %35
  %39 = phi ptr [ %36, %35 ], [ %38, %37 ]
  store ptr %39, ptr %33, align 8
  store i32 16, ptr %6, align 8
  br label %Vec_PtrPush.exit

40:                                               ; preds = %30
  %41 = shl nuw nsw i32 %27, 1
  %42 = getelementptr inbounds nuw i8, ptr %6, i64 8
  %43 = load ptr, ptr %42, align 8
  %.not9.i10.i = icmp eq ptr %43, null
  %44 = zext nneg i32 %41 to i64
  %45 = shl nuw nsw i64 %44, 3
  br i1 %.not9.i10.i, label %48, label %46

46:                                               ; preds = %40
  %47 = tail call ptr @realloc(ptr noundef nonnull %43, i64 noundef %45) #14
  br label %50

48:                                               ; preds = %40
  %49 = tail call noalias ptr @malloc(i64 noundef %45) #12
  br label %50

50:                                               ; preds = %48, %46
  %51 = phi ptr [ %47, %46 ], [ %49, %48 ]
  store ptr %51, ptr %42, align 8
  store i32 %41, ptr %6, align 8
  br label %Vec_PtrPush.exit

Vec_PtrPush.exit:                                 ; preds = %.Vec_PtrGrow.exit11_crit_edge.i, %Vec_PtrGrow.exit.i, %50
  %52 = phi ptr [ %.pre.i, %.Vec_PtrGrow.exit11_crit_edge.i ], [ %51, %50 ], [ %39, %Vec_PtrGrow.exit.i ]
  %53 = load i32, ptr %7, align 4
  %54 = add nsw i32 %53, 1
  store i32 %54, ptr %7, align 4
  %55 = sext i32 %53 to i64
  %56 = getelementptr inbounds ptr, ptr %52, i64 %55
  store ptr %2, ptr %56, align 8
  br label %57

57:                                               ; preds = %Vec_PtrPush.exit, %4
  %.0 = phi i32 [ 0, %4 ], [ 1, %Vec_PtrPush.exit ]
  ret i32 %.0
}